; Function Attrs: mustprogress uwtable
define internal noundef nonnull ptr @_ZN7testing8internal15TestFactoryImplIN12_GLOBAL__N_135gieTest_proj_create_crs_to_crs_TestEE10CreateTestEv(ptr nonnull readnone align 8 captures(none) %0) unnamed_addr #4 align 2 personality ptr @__gxx_personality_v0 {
  %2 = tail call noalias noundef nonnull dereferenceable(24) ptr @_Znwm(i64 noundef 24) #24
  invoke void @_ZN7testing4TestC2Ev(ptr noundef nonnull align 8 dereferenceable(24) %2)
          to label %3 unwind label %5

3:                                                ; preds = %1
  %4 = getelementptr inbounds nuw i8, ptr %2, i64 16
  store ptr null, ptr %4, align 8, !tbaa !125
  store ptr getelementptr inbounds nuw inrange(-16, 48) (i8, ptr @_ZTVN12_GLOBAL__N_135gieTest_proj_create_crs_to_crs_TestE, i64 16), ptr %2, align 8, !tbaa !16
  ret ptr %2

5:                                                ; preds = %1
  %6 = landingpad { ptr, i32 }
          cleanup
  tail call void @_ZdlPvm(ptr noundef nonnull %2, i64 noundef 24) #23
  resume { ptr, i32 } %6
}